target datalayout = "e-m:e-p270:32:32-p271:32:32-p272:64:64-i64:64-i128:128-f80:128-n8:16:32:64-S128"
target triple = "x86_64-pc-linux-gnu"

%struct._DtBauhausWidget = type { %struct._GtkDrawingArea, i32, ptr, ptr, i32, [256 x i8], i32, ptr, i32, ptr, ptr, i32, ptr, i32, i32, i32, %struct._GtkBorder, %struct._GtkBorder, i32, %union.dt_bauhaus_data_t }
%struct._GtkDrawingArea = type { %struct._GtkWidget, ptr }
%struct._GtkWidget = type { %struct._GObject, ptr }
%struct._GObject = type { %struct._GTypeInstance, i32, ptr }
%struct._GTypeInstance = type { ptr }
%struct._GtkBorder = type { i16, i16, i16, i16 }
%union.dt_bauhaus_data_t = type { %struct.dt_bauhaus_slider_data_t }
%struct.dt_bauhaus_slider_data_t = type { float, float, float, float, float, float, float, float, float, float, i32, ptr, i32, ptr, i8, ptr, float, float, i8, i32, ptr }

@dt_bh_get_type.static_g_define_type_id = internal global i64 0, align 8

; Function Attrs: nounwind uwtable
define i64 @dt_bh_get_type() #0 {
  %1 = alloca i32, align 4
  %2 = alloca i64, align 8
  %3 = alloca ptr, align 8
  %4 = alloca i64, align 8
  %5 = alloca i64, align 8
  call void @llvm.lifetime.start.p0(i64 8, ptr %2) #13
  call void @llvm.lifetime.start.p0(i64 8, ptr %3) #13
  store ptr @dt_bh_get_type.static_g_define_type_id, ptr %3, align 8, !tbaa !6
  %6 = load ptr, ptr %3, align 8, !tbaa !6
  %7 = load atomic i64, ptr %6 seq_cst, align 8
  store i64 %7, ptr %2, align 8
  %8 = load i64, ptr %2, align 8, !tbaa !11
  store i64 %8, ptr %4, align 8, !tbaa !11
  call void @llvm.lifetime.end.p0(i64 8, ptr %3) #13
  call void @llvm.lifetime.end.p0(i64 8, ptr %2) #13
  %9 = load i64, ptr %4, align 8, !tbaa !11
  %10 = icmp ne i64 %9, 0
  br i1 %10, label %14, label %11

11:                                               ; preds = %0
  %12 = call i32 @g_once_init_enter(ptr noundef @dt_bh_get_type.static_g_define_type_id)
  %13 = icmp ne i32 %12, 0
  br label %14

14:                                               ; preds = %11, %0
  %15 = phi i1 [ false, %0 ], [ %13, %11 ]
  %16 = zext i1 %15 to i32
  store i32 %16, ptr %1, align 4, !tbaa !13
  %17 = load i32, ptr %1, align 4, !tbaa !13
  %18 = icmp ne i32 %17, 0
  br i1 %18, label %19, label %22

19:                                               ; preds = %14
  call void @llvm.lifetime.start.p0(i64 8, ptr %5) #13
  %20 = call i64 @dt_bh_get_type_once()
  store i64 %20, ptr %5, align 8, !tbaa !11
  %21 = load i64, ptr %5, align 8, !tbaa !11
  call void @g_once_init_leave(ptr noundef @dt_bh_get_type.static_g_define_type_id, i64 noundef %21)
  call void @llvm.lifetime.end.p0(i64 8, ptr %5) #13
  br label %22

22:                                               ; preds = %19, %14
  %23 = load i64, ptr @dt_bh_get_type.static_g_define_type_id, align 8, !tbaa !11
  ret i64 %23
}

; Function Attrs: nounwind uwtable
define void @dt_bauhaus_slider_set_hard_max(ptr noundef %0, float noundef %1) #0 {
  %3 = alloca ptr, align 8
  %4 = alloca float, align 4
  %5 = alloca ptr, align 8
  %6 = alloca ptr, align 8
  %7 = alloca float, align 4
  store ptr %0, ptr %3, align 8, !tbaa !15
  store float %1, ptr %4, align 4, !tbaa !130
  call void @llvm.lifetime.start.p0(i64 8, ptr %5) #13
  %8 = load ptr, ptr %3, align 8, !tbaa !15
  %9 = call ptr @DT_BAUHAUS_WIDGET(ptr noundef %8)
  store ptr %9, ptr %5, align 8, !tbaa !17
  call void @llvm.lifetime.start.p0(i64 8, ptr %6) #13
  %10 = load ptr, ptr %5, align 8, !tbaa !17
  %11 = getelementptr inbounds nuw %struct._DtBauhausWidget, ptr %10, i32 0, i32 19
  store ptr %11, ptr %6, align 8, !tbaa !140
  call void @llvm.lifetime.start.p0(i64 4, ptr %7) #13
  %12 = load ptr, ptr %3, align 8, !tbaa !15
  %13 = call reassoc nsz arcp contract afn float @dt_bauhaus_slider_get(ptr noundef %12)
  store float %13, ptr %7, align 4, !tbaa !130
  %14 = load float, ptr %4, align 4, !tbaa !130
  %15 = load ptr, ptr %6, align 8, !tbaa !140
  %16 = getelementptr inbounds nuw %struct.dt_bauhaus_slider_data_t, ptr %15, i32 0, i32 9
  store float %14, ptr %16, align 4, !tbaa !208
  %17 = load ptr, ptr %6, align 8, !tbaa !140
  %18 = getelementptr inbounds nuw %struct.dt_bauhaus_slider_data_t, ptr %17, i32 0, i32 5
  %19 = load float, ptr %18, align 4, !tbaa !147
  %20 = load ptr, ptr %6, align 8, !tbaa !140
  %21 = getelementptr inbounds nuw %struct.dt_bauhaus_slider_data_t, ptr %20, i32 0, i32 9
  %22 = load float, ptr %21, align 4, !tbaa !208
  %23 = fcmp reassoc nsz arcp contract afn olt float %19, %22
  br i1 %23, label %24, label %28

24:                                               ; preds = %2
  %25 = load ptr, ptr %6, align 8, !tbaa !140
  %26 = getelementptr inbounds nuw %struct.dt_bauhaus_slider_data_t, ptr %25, i32 0, i32 5
  %27 = load float, ptr %26, align 4, !tbaa !147
  br label %32

28:                                               ; preds = %2
  %29 = load ptr, ptr %6, align 8, !tbaa !140
  %30 = getelementptr inbounds nuw %struct.dt_bauhaus_slider_data_t, ptr %29, i32 0, i32 9
  %31 = load float, ptr %30, align 4, !tbaa !208
  br label %32

32:                                               ; preds = %28, %24
  %33 = phi reassoc nsz arcp contract afn float [ %27, %24 ], [ %31, %28 ]
  %34 = load ptr, ptr %6, align 8, !tbaa !140
  %35 = getelementptr inbounds nuw %struct.dt_bauhaus_slider_data_t, ptr %34, i32 0, i32 5
  store float %33, ptr %35, align 4, !tbaa !147
  %36 = load ptr, ptr %6, align 8, !tbaa !140
  %37 = getelementptr inbounds nuw %struct.dt_bauhaus_slider_data_t, ptr %36, i32 0, i32 7
  %38 = load float, ptr %37, align 4, !tbaa !211
  %39 = load ptr, ptr %6, align 8, !tbaa !140
  %40 = getelementptr inbounds nuw %struct.dt_bauhaus_slider_data_t, ptr %39, i32 0, i32 9
  %41 = load float, ptr %40, align 4, !tbaa !208
  %42 = fcmp reassoc nsz arcp contract afn olt float %38, %41
  br i1 %42, label %43, label %47

43:                                               ; preds = %32
  %44 = load ptr, ptr %6, align 8, !tbaa !140
  %45 = getelementptr inbounds nuw %struct.dt_bauhaus_slider_data_t, ptr %44, i32 0, i32 7
  %46 = load float, ptr %45, align 4, !tbaa !211
  br label %51

47:                                               ; preds = %32
  %48 = load ptr, ptr %6, align 8, !tbaa !140
  %49 = getelementptr inbounds nuw %struct.dt_bauhaus_slider_data_t, ptr %48, i32 0, i32 9
  %50 = load float, ptr %49, align 4, !tbaa !208
  br label %51

51:                                               ; preds = %47, %43
  %52 = phi reassoc nsz arcp contract afn float [ %46, %43 ], [ %50, %47 ]
  %53 = load ptr, ptr %6, align 8, !tbaa !140
  %54 = getelementptr inbounds nuw %struct.dt_bauhaus_slider_data_t, ptr %53, i32 0, i32 7
  store float %52, ptr %54, align 4, !tbaa !211
  %55 = load float, ptr %4, align 4, !tbaa !130
  %56 = load ptr, ptr %6, align 8, !tbaa !140
  %57 = getelementptr inbounds nuw %struct.dt_bauhaus_slider_data_t, ptr %56, i32 0, i32 8
  %58 = load float, ptr %57, align 8, !tbaa !206
  %59 = fcmp reassoc nsz arcp contract afn olt float %55, %58
  br i1 %59, label %60, label %63

60:                                               ; preds = %51
  %61 = load ptr, ptr %3, align 8, !tbaa !15
  %62 = load float, ptr %4, align 4, !tbaa !130
  call void @dt_bauhaus_slider_set_hard_min(ptr noundef %61, float noundef %62)
  br label %63

63:                                               ; preds = %60, %51
  %64 = load float, ptr %7, align 4, !tbaa !130
  %65 = load float, ptr %4, align 4, !tbaa !130
  %66 = fcmp reassoc nsz arcp contract afn ogt float %64, %65
  br i1 %66, label %67, label %70

67:                                               ; preds = %63
  %68 = load ptr, ptr %3, align 8, !tbaa !15
  %69 = load float, ptr %4, align 4, !tbaa !130
  call void @dt_bauhaus_slider_set(ptr noundef %68, float noundef %69)
  br label %73

70:                                               ; preds = %63
  %71 = load ptr, ptr %3, align 8, !tbaa !15
  %72 = load float, ptr %7, align 4, !tbaa !130
  call void @dt_bauhaus_slider_set(ptr noundef %71, float noundef %72)
  br label %73

73:                                               ; preds = %70, %67
  call void @llvm.lifetime.end.p0(i64 4, ptr %7) #13
  call void @llvm.lifetime.end.p0(i64 8, ptr %6) #13
  call void @llvm.lifetime.end.p0(i64 8, ptr %5) #13
  ret void
}

; Function Attrs: nounwind uwtable
define float @dt_bauhaus_slider_get(ptr noundef %0) #0 {
  %2 = alloca float, align 4
  %3 = alloca ptr, align 8
  %4 = alloca ptr, align 8
  %5 = alloca i32, align 4
  %6 = alloca ptr, align 8
  %7 = alloca float, align 4
  store ptr %0, ptr %3, align 8, !tbaa !15
  call void @llvm.lifetime.start.p0(i64 8, ptr %4) #13
  %8 = load ptr, ptr %3, align 8, !tbaa !15
  %9 = call ptr @DT_BAUHAUS_WIDGET(ptr noundef %8)
  store ptr %9, ptr %4, align 8, !tbaa !17
  %10 = load ptr, ptr %4, align 8, !tbaa !17
  %11 = getelementptr inbounds nuw %struct._DtBauhausWidget, ptr %10, i32 0, i32 1
  %12 = load i32, ptr %11, align 8, !tbaa !139
  %13 = icmp ne i32 %12, 1
  br i1 %13, label %14, label %15

14:                                               ; preds = %1
  store float -1.000000e+00, ptr %2, align 4
  store i32 1, ptr %5, align 4
  br label %51

15:                                               ; preds = %1
  call void @llvm.lifetime.start.p0(i64 8, ptr %6) #13
  %16 = load ptr, ptr %4, align 8, !tbaa !17
  %17 = getelementptr inbounds nuw %struct._DtBauhausWidget, ptr %16, i32 0, i32 19
  store ptr %17, ptr %6, align 8, !tbaa !140
  %18 = load ptr, ptr %6, align 8, !tbaa !140
  %19 = getelementptr inbounds nuw %struct.dt_bauhaus_slider_data_t, ptr %18, i32 0, i32 5
  %20 = load float, ptr %19, align 4, !tbaa !147
  %21 = load ptr, ptr %6, align 8, !tbaa !140
  %22 = getelementptr inbounds nuw %struct.dt_bauhaus_slider_data_t, ptr %21, i32 0, i32 4
  %23 = load float, ptr %22, align 8, !tbaa !148
  %24 = fcmp reassoc nsz arcp contract afn oeq float %20, %23
  br i1 %24, label %25, label %29

25:                                               ; preds = %15
  %26 = load ptr, ptr %6, align 8, !tbaa !140
  %27 = getelementptr inbounds nuw %struct.dt_bauhaus_slider_data_t, ptr %26, i32 0, i32 5
  %28 = load float, ptr %27, align 4, !tbaa !147
  store float %28, ptr %2, align 4
  store i32 1, ptr %5, align 4
  br label %50

29:                                               ; preds = %15
  call void @llvm.lifetime.start.p0(i64 4, ptr %7) #13
  %30 = load ptr, ptr %6, align 8, !tbaa !140
  %31 = getelementptr inbounds nuw %struct.dt_bauhaus_slider_data_t, ptr %30, i32 0, i32 20
  %32 = load ptr, ptr %31, align 8, !tbaa !209
  %33 = load ptr, ptr %6, align 8, !tbaa !140
  %34 = getelementptr inbounds nuw %struct.dt_bauhaus_slider_data_t, ptr %33, i32 0, i32 0
  %35 = load float, ptr %34, align 8, !tbaa !210
  %36 = call reassoc nsz arcp contract afn float %32(float noundef %35, i32 noundef 2)
  store float %36, ptr %7, align 4, !tbaa !130
  %37 = load ptr, ptr %6, align 8, !tbaa !140
  %38 = getelementptr inbounds nuw %struct.dt_bauhaus_slider_data_t, ptr %37, i32 0, i32 4
  %39 = load float, ptr %38, align 8, !tbaa !148
  %40 = load float, ptr %7, align 4, !tbaa !130
  %41 = load ptr, ptr %6, align 8, !tbaa !140
  %42 = getelementptr inbounds nuw %struct.dt_bauhaus_slider_data_t, ptr %41, i32 0, i32 5
  %43 = load float, ptr %42, align 4, !tbaa !147
  %44 = load ptr, ptr %6, align 8, !tbaa !140
  %45 = getelementptr inbounds nuw %struct.dt_bauhaus_slider_data_t, ptr %44, i32 0, i32 4
  %46 = load float, ptr %45, align 8, !tbaa !148
  %47 = fsub reassoc nsz arcp contract afn float %43, %46
  %48 = fmul reassoc nsz arcp contract afn float %40, %47
  %49 = fadd reassoc nsz arcp contract afn float %39, %48
  store float %49, ptr %2, align 4
  store i32 1, ptr %5, align 4
  call void @llvm.lifetime.end.p0(i64 4, ptr %7) #13
  br label %50

50:                                               ; preds = %29, %25
  call void @llvm.lifetime.end.p0(i64 8, ptr %6) #13
  br label %51

51:                                               ; preds = %50, %14
  call void @llvm.lifetime.end.p0(i64 8, ptr %4) #13
  %52 = load float, ptr %2, align 4
  ret float %52
}

; Function Attrs: inlinehint nounwind uwtable
define internal ptr @DT_BAUHAUS_WIDGET(ptr noundef %0) #4 {
  %2 = alloca ptr, align 8
  store ptr %0, ptr %2, align 8, !tbaa !32
  %3 = load ptr, ptr %2, align 8, !tbaa !32
  %4 = call i64 @dt_bh_get_type()
  %5 = call ptr @g_type_check_instance_cast(ptr noundef %3, i64 noundef %4)
  ret ptr %5
}

; Function Attrs: nounwind uwtable
define void @dt_bauhaus_slider_set_hard_min(ptr noundef %0, float noundef %1) #0 {
  %3 = alloca ptr, align 8
  %4 = alloca float, align 4
  %5 = alloca ptr, align 8
  %6 = alloca ptr, align 8
  %7 = alloca float, align 4
  store ptr %0, ptr %3, align 8, !tbaa !15
  store float %1, ptr %4, align 4, !tbaa !130
  call void @llvm.lifetime.start.p0(i64 8, ptr %5) #13
  %8 = load ptr, ptr %3, align 8, !tbaa !15
  %9 = call ptr @DT_BAUHAUS_WIDGET(ptr noundef %8)
  store ptr %9, ptr %5, align 8, !tbaa !17
  call void @llvm.lifetime.start.p0(i64 8, ptr %6) #13
  %10 = load ptr, ptr %5, align 8, !tbaa !17
  %11 = getelementptr inbounds nuw %struct._DtBauhausWidget, ptr %10, i32 0, i32 19
  store ptr %11, ptr %6, align 8, !tbaa !140
  call void @llvm.lifetime.start.p0(i64 4, ptr %7) #13
  %12 = load ptr, ptr %3, align 8, !tbaa !15
  %13 = call reassoc nsz arcp contract afn float @dt_bauhaus_slider_get(ptr noundef %12)
  store float %13, ptr %7, align 4, !tbaa !130
  %14 = load float, ptr %4, align 4, !tbaa !130
  %15 = load ptr, ptr %6, align 8, !tbaa !140
  %16 = getelementptr inbounds nuw %struct.dt_bauhaus_slider_data_t, ptr %15, i32 0, i32 8
  store float %14, ptr %16, align 8, !tbaa !206
  %17 = load ptr, ptr %6, align 8, !tbaa !140
  %18 = getelementptr inbounds nuw %struct.dt_bauhaus_slider_data_t, ptr %17, i32 0, i32 4
  %19 = load float, ptr %18, align 8, !tbaa !148
  %20 = load ptr, ptr %6, align 8, !tbaa !140
  %21 = getelementptr inbounds nuw %struct.dt_bauhaus_slider_data_t, ptr %20, i32 0, i32 8
  %22 = load float, ptr %21, align 8, !tbaa !206
  %23 = fcmp reassoc nsz arcp contract afn ogt float %19, %22
  br i1 %23, label %24, label %28

24:                                               ; preds = %2
  %25 = load ptr, ptr %6, align 8, !tbaa !140
  %26 = getelementptr inbounds nuw %struct.dt_bauhaus_slider_data_t, ptr %25, i32 0, i32 4
  %27 = load float, ptr %26, align 8, !tbaa !148
  br label %32

28:                                               ; preds = %2
  %29 = load ptr, ptr %6, align 8, !tbaa !140
  %30 = getelementptr inbounds nuw %struct.dt_bauhaus_slider_data_t, ptr %29, i32 0, i32 8
  %31 = load float, ptr %30, align 8, !tbaa !206
  br label %32

32:                                               ; preds = %28, %24
  %33 = phi reassoc nsz arcp contract afn float [ %27, %24 ], [ %31, %28 ]
  %34 = load ptr, ptr %6, align 8, !tbaa !140
  %35 = getelementptr inbounds nuw %struct.dt_bauhaus_slider_data_t, ptr %34, i32 0, i32 4
  store float %33, ptr %35, align 8, !tbaa !148
  %36 = load ptr, ptr %6, align 8, !tbaa !140
  %37 = getelementptr inbounds nuw %struct.dt_bauhaus_slider_data_t, ptr %36, i32 0, i32 6
  %38 = load float, ptr %37, align 8, !tbaa !207
  %39 = load ptr, ptr %6, align 8, !tbaa !140
  %40 = getelementptr inbounds nuw %struct.dt_bauhaus_slider_data_t, ptr %39, i32 0, i32 8
  %41 = load float, ptr %40, align 8, !tbaa !206
  %42 = fcmp reassoc nsz arcp contract afn ogt float %38, %41
  br i1 %42, label %43, label %47

43:                                               ; preds = %32
  %44 = load ptr, ptr %6, align 8, !tbaa !140
  %45 = getelementptr inbounds nuw %struct.dt_bauhaus_slider_data_t, ptr %44, i32 0, i32 6
  %46 = load float, ptr %45, align 8, !tbaa !207
  br label %51

47:                                               ; preds = %32
  %48 = load ptr, ptr %6, align 8, !tbaa !140
  %49 = getelementptr inbounds nuw %struct.dt_bauhaus_slider_data_t, ptr %48, i32 0, i32 8
  %50 = load float, ptr %49, align 8, !tbaa !206
  br label %51

51:                                               ; preds = %47, %43
  %52 = phi reassoc nsz arcp contract afn float [ %46, %43 ], [ %50, %47 ]
  %53 = load ptr, ptr %6, align 8, !tbaa !140
  %54 = getelementptr inbounds nuw %struct.dt_bauhaus_slider_data_t, ptr %53, i32 0, i32 6
  store float %52, ptr %54, align 8, !tbaa !207
  %55 = load float, ptr %4, align 4, !tbaa !130
  %56 = load ptr, ptr %6, align 8, !tbaa !140
  %57 = getelementptr inbounds nuw %struct.dt_bauhaus_slider_data_t, ptr %56, i32 0, i32 9
  %58 = load float, ptr %57, align 4, !tbaa !208
  %59 = fcmp reassoc nsz arcp contract afn ogt float %55, %58
  br i1 %59, label %60, label %63

60:                                               ; preds = %51
  %61 = load ptr, ptr %3, align 8, !tbaa !15
  %62 = load float, ptr %4, align 4, !tbaa !130
  call void @dt_bauhaus_slider_set_hard_max(ptr noundef %61, float noundef %62)
  br label %63

63:                                               ; preds = %60, %51
  %64 = load float, ptr %7, align 4, !tbaa !130
  %65 = load float, ptr %4, align 4, !tbaa !130
  %66 = fcmp reassoc nsz arcp contract afn olt float %64, %65
  br i1 %66, label %67, label %70

67:                                               ; preds = %63
  %68 = load ptr, ptr %3, align 8, !tbaa !15
  %69 = load float, ptr %4, align 4, !tbaa !130
  call void @dt_bauhaus_slider_set(ptr noundef %68, float noundef %69)
  br label %73

70:                                               ; preds = %63
  %71 = load ptr, ptr %3, align 8, !tbaa !15
  %72 = load float, ptr %7, align 4, !tbaa !130
  call void @dt_bauhaus_slider_set(ptr noundef %71, float noundef %72)
  br label %73

73:                                               ; preds = %70, %67
  call void @llvm.lifetime.end.p0(i64 4, ptr %7) #13
  call void @llvm.lifetime.end.p0(i64 8, ptr %6) #13
  call void @llvm.lifetime.end.p0(i64 8, ptr %5) #13
  ret void
}