; Function Attrs: nounwind uwtable
define void @dt_bauhaus_slider_set_hard_min(ptr noundef %0, float noundef %1) local_unnamed_addr #0 {
  %3 = load atomic i64, ptr @dt_bh_get_type.static_g_define_type_id seq_cst, align 8
  %.not.i.i = icmp eq i64 %3, 0
  br i1 %.not.i.i, label %4, label %DT_BAUHAUS_WIDGET.exit

4:                                                ; preds = %2
  %5 = tail call i32 @g_once_init_enter(ptr noundef nonnull @dt_bh_get_type.static_g_define_type_id) #19
  %.not4.i.i = icmp eq i32 %5, 0
  br i1 %.not4.i.i, label %DT_BAUHAUS_WIDGET.exit, label %6

6:                                                ; preds = %4
  %7 = tail call fastcc i64 @dt_bh_get_type_once()
  tail call void @g_once_init_leave(ptr noundef nonnull @dt_bh_get_type.static_g_define_type_id, i64 noundef %7) #19
  br label %DT_BAUHAUS_WIDGET.exit

DT_BAUHAUS_WIDGET.exit:                           ; preds = %2, %4, %6
  %8 = load i64, ptr @dt_bh_get_type.static_g_define_type_id, align 8, !tbaa !6
  %9 = tail call ptr @g_type_check_instance_cast(ptr noundef %0, i64 noundef %8) #19
  %10 = load atomic i64, ptr @dt_bh_get_type.static_g_define_type_id seq_cst, align 8
  %.not.i.i.i = icmp eq i64 %10, 0
  br i1 %.not.i.i.i, label %11, label %DT_BAUHAUS_WIDGET.exit.i

11:                                               ; preds = %DT_BAUHAUS_WIDGET.exit
  %12 = tail call i32 @g_once_init_enter(ptr noundef nonnull @dt_bh_get_type.static_g_define_type_id) #19
  %.not4.i.i.i = icmp eq i32 %12, 0
  br i1 %.not4.i.i.i, label %DT_BAUHAUS_WIDGET.exit.i, label %13

13:                                               ; preds = %11
  %14 = tail call fastcc i64 @dt_bh_get_type_once()
  tail call void @g_once_init_leave(ptr noundef nonnull @dt_bh_get_type.static_g_define_type_id, i64 noundef %14) #19
  br label %DT_BAUHAUS_WIDGET.exit.i

DT_BAUHAUS_WIDGET.exit.i:                         ; preds = %13, %11, %DT_BAUHAUS_WIDGET.exit
  %15 = load i64, ptr @dt_bh_get_type.static_g_define_type_id, align 8, !tbaa !6
  %16 = tail call ptr @g_type_check_instance_cast(ptr noundef %0, i64 noundef %15) #19
  %17 = getelementptr inbounds nuw i8, ptr %16, i64 40
  %18 = load i32, ptr %17, align 8, !tbaa !105
  %.not.i = icmp eq i32 %18, 1
  br i1 %.not.i, label %19, label %dt_bauhaus_slider_get.exit

19:                                               ; preds = %DT_BAUHAUS_WIDGET.exit.i
  %20 = getelementptr inbounds nuw i8, ptr %16, i64 428
  %21 = load float, ptr %20, align 4, !tbaa !120
  %22 = getelementptr inbounds nuw i8, ptr %16, i64 424
  %23 = load float, ptr %22, align 8, !tbaa !121
  %24 = fcmp reassoc nsz arcp contract afn oeq float %21, %23
  br i1 %24, label %dt_bauhaus_slider_get.exit, label %25

25:                                               ; preds = %19
  %26 = getelementptr inbounds nuw i8, ptr %16, i64 408
  %27 = getelementptr inbounds nuw i8, ptr %16, i64 512
  %28 = load ptr, ptr %27, align 8, !tbaa !142
  %29 = load float, ptr %26, align 8, !tbaa !143
  %30 = tail call reassoc nsz arcp contract afn float %28(float noundef %29, i32 noundef 2) #19
  %31 = load float, ptr %22, align 8, !tbaa !121
  %32 = load float, ptr %20, align 4, !tbaa !120
  %33 = fsub reassoc nsz arcp contract afn float %32, %31
  %34 = fmul reassoc nsz arcp contract afn float %33, %30
  %35 = fadd reassoc nsz arcp contract afn float %34, %31
  br label %dt_bauhaus_slider_get.exit

dt_bauhaus_slider_get.exit:                       ; preds = %DT_BAUHAUS_WIDGET.exit.i, %19, %25
  %.0.i = phi nsz float [ -1.000000e+00, %DT_BAUHAUS_WIDGET.exit.i ], [ %35, %25 ], [ %21, %19 ]
  %36 = getelementptr inbounds nuw i8, ptr %9, i64 440
  store float %1, ptr %36, align 8, !tbaa !170
  %37 = getelementptr inbounds nuw i8, ptr %9, i64 424
  %38 = load float, ptr %37, align 8, !tbaa !121
  %39 = fcmp reassoc nsz arcp contract afn ogt float %38, %1
  %. = select reassoc nsz arcp contract afn i1 %39, float %38, float %1
  store float %., ptr %37, align 8, !tbaa !121
  %40 = getelementptr inbounds nuw i8, ptr %9, i64 432
  %41 = load float, ptr %40, align 8, !tbaa !171
  %42 = fcmp reassoc nsz arcp contract afn ogt float %41, %1
  %43 = select reassoc nsz arcp contract afn i1 %42, float %41, float %1
  store float %43, ptr %40, align 8, !tbaa !171
  %44 = getelementptr inbounds nuw i8, ptr %9, i64 444
  %45 = load float, ptr %44, align 4, !tbaa !172
  %46 = fcmp reassoc nsz arcp contract afn ogt float %1, %45
  br i1 %46, label %47, label %dt_bauhaus_slider_set_hard_max.exit

47:                                               ; preds = %dt_bauhaus_slider_get.exit
  %48 = load atomic i64, ptr @dt_bh_get_type.static_g_define_type_id seq_cst, align 8
  %.not.i.i35 = icmp eq i64 %48, 0
  br i1 %.not.i.i35, label %49, label %DT_BAUHAUS_WIDGET.exit37

49:                                               ; preds = %47
  %50 = tail call i32 @g_once_init_enter(ptr noundef nonnull @dt_bh_get_type.static_g_define_type_id) #19
  %.not4.i.i36 = icmp eq i32 %50, 0
  br i1 %.not4.i.i36, label %DT_BAUHAUS_WIDGET.exit37, label %51

51:                                               ; preds = %49
  %52 = tail call fastcc i64 @dt_bh_get_type_once()
  tail call void @g_once_init_leave(ptr noundef nonnull @dt_bh_get_type.static_g_define_type_id, i64 noundef %52) #19
  br label %DT_BAUHAUS_WIDGET.exit37

DT_BAUHAUS_WIDGET.exit37:                         ; preds = %47, %49, %51
  %53 = load i64, ptr @dt_bh_get_type.static_g_define_type_id, align 8, !tbaa !6
  %54 = tail call ptr @g_type_check_instance_cast(ptr noundef %0, i64 noundef %53) #19
  %55 = load atomic i64, ptr @dt_bh_get_type.static_g_define_type_id seq_cst, align 8
  %.not.i.i.i29 = icmp eq i64 %55, 0
  br i1 %.not.i.i.i29, label %56, label %DT_BAUHAUS_WIDGET.exit.i30

56:                                               ; preds = %DT_BAUHAUS_WIDGET.exit37
  %57 = tail call i32 @g_once_init_enter(ptr noundef nonnull @dt_bh_get_type.static_g_define_type_id) #19
  %.not4.i.i.i33 = icmp eq i32 %57, 0
  br i1 %.not4.i.i.i33, label %DT_BAUHAUS_WIDGET.exit.i30, label %58

58:                                               ; preds = %56
  %59 = tail call fastcc i64 @dt_bh_get_type_once()
  tail call void @g_once_init_leave(ptr noundef nonnull @dt_bh_get_type.static_g_define_type_id, i64 noundef %59) #19
  br label %DT_BAUHAUS_WIDGET.exit.i30

DT_BAUHAUS_WIDGET.exit.i30:                       ; preds = %58, %56, %DT_BAUHAUS_WIDGET.exit37
  %60 = load i64, ptr @dt_bh_get_type.static_g_define_type_id, align 8, !tbaa !6
  %61 = tail call ptr @g_type_check_instance_cast(ptr noundef %0, i64 noundef %60) #19
  %62 = getelementptr inbounds nuw i8, ptr %61, i64 40
  %63 = load i32, ptr %62, align 8, !tbaa !105
  %.not.i31 = icmp eq i32 %63, 1
  br i1 %.not.i31, label %64, label %dt_bauhaus_slider_get.exit34

64:                                               ; preds = %DT_BAUHAUS_WIDGET.exit.i30
  %65 = getelementptr inbounds nuw i8, ptr %61, i64 428
  %66 = load float, ptr %65, align 4, !tbaa !120
  %67 = getelementptr inbounds nuw i8, ptr %61, i64 424
  %68 = load float, ptr %67, align 8, !tbaa !121
  %69 = fcmp reassoc nsz arcp contract afn oeq float %66, %68
  br i1 %69, label %dt_bauhaus_slider_get.exit34, label %70

70:                                               ; preds = %64
  %71 = getelementptr inbounds nuw i8, ptr %61, i64 408
  %72 = getelementptr inbounds nuw i8, ptr %61, i64 512
  %73 = load ptr, ptr %72, align 8, !tbaa !142
  %74 = load float, ptr %71, align 8, !tbaa !143
  %75 = tail call reassoc nsz arcp contract afn float %73(float noundef %74, i32 noundef 2) #19
  %76 = load float, ptr %67, align 8, !tbaa !121
  %77 = load float, ptr %65, align 4, !tbaa !120
  %78 = fsub reassoc nsz arcp contract afn float %77, %76
  %79 = fmul reassoc nsz arcp contract afn float %78, %75
  %80 = fadd reassoc nsz arcp contract afn float %79, %76
  br label %dt_bauhaus_slider_get.exit34

dt_bauhaus_slider_get.exit34:                     ; preds = %DT_BAUHAUS_WIDGET.exit.i30, %64, %70
  %.0.i32 = phi nsz float [ -1.000000e+00, %DT_BAUHAUS_WIDGET.exit.i30 ], [ %80, %70 ], [ %66, %64 ]
  %81 = getelementptr inbounds nuw i8, ptr %54, i64 444
  store float %1, ptr %81, align 4, !tbaa !172
  %82 = getelementptr inbounds nuw i8, ptr %54, i64 428
  %83 = load float, ptr %82, align 4, !tbaa !120
  %84 = fcmp reassoc nsz arcp contract afn olt float %83, %1
  %..i = select reassoc nsz arcp contract afn i1 %84, float %83, float %1
  store float %..i, ptr %82, align 4, !tbaa !120
  %85 = getelementptr inbounds nuw i8, ptr %54, i64 436
  %86 = load float, ptr %85, align 4, !tbaa !173
  %87 = fcmp reassoc nsz arcp contract afn olt float %86, %1
  %88 = select reassoc nsz arcp contract afn i1 %87, float %86, float %1
  store float %88, ptr %85, align 4, !tbaa !173
  %89 = getelementptr inbounds nuw i8, ptr %54, i64 440
  %90 = load float, ptr %89, align 8, !tbaa !170
  %91 = fcmp reassoc nsz arcp contract afn olt float %1, %90
  br i1 %91, label %92, label %dt_bauhaus_slider_set_hard_max.exit.sink.split

92:                                               ; preds = %dt_bauhaus_slider_get.exit34
  tail call void @dt_bauhaus_slider_set_hard_min(ptr noundef %0, float noundef %1)
  br label %dt_bauhaus_slider_set_hard_max.exit.sink.split

dt_bauhaus_slider_set_hard_max.exit.sink.split:   ; preds = %92, %dt_bauhaus_slider_get.exit34
  %93 = fcmp reassoc nsz arcp contract afn ogt float %.0.i32, %1
  %..0.i32 = select i1 %93, float %1, float %.0.i32
  tail call void @dt_bauhaus_slider_set(ptr noundef %0, float noundef %..0.i32)
  br label %dt_bauhaus_slider_set_hard_max.exit

dt_bauhaus_slider_set_hard_max.exit:              ; preds = %dt_bauhaus_slider_set_hard_max.exit.sink.split, %dt_bauhaus_slider_get.exit
  %94 = fcmp reassoc nsz arcp contract afn olt float %.0.i, %1
  %..0.i = select i1 %94, float %1, float %.0.i
  tail call void @dt_bauhaus_slider_set(ptr noundef %0, float noundef %..0.i)
  ret void
}